target datalayout = "e-m:e-p270:32:32-p271:32:32-p272:64:64-i64:64-i128:128-f80:128-n8:16:32:64-S128"
target triple = "x86_64-pc-linux-gnu"

%"class.tbb::detail::d1::task_group_context" = type { i64, %"struct.std::atomic.4", i8, %"struct.tbb::detail::d1::task_group_context::context_traits", %"struct.std::atomic.6", %"struct.std::atomic.8", %union.anon, ptr, %"struct.tbb::detail::d1::intrusive_list_node", %"struct.std::atomic.9", ptr, i64, [56 x i8] }
%"struct.std::atomic.4" = type { %"struct.std::__atomic_base.5" }
%"struct.std::__atomic_base.5" = type { i32 }
%"struct.tbb::detail::d1::task_group_context::context_traits" = type { i8 }
%"struct.std::atomic.6" = type { %"struct.std::__atomic_base.7" }
%"struct.std::__atomic_base.7" = type { i8 }
%"struct.std::atomic.8" = type { i8 }
%union.anon = type { ptr }
%"struct.tbb::detail::d1::intrusive_list_node" = type { ptr, ptr }
%"struct.std::atomic.9" = type { %"struct.std::__atomic_base.10" }
%"struct.std::__atomic_base.10" = type { ptr }

; Function Attrs: mustprogress nounwind sspstrong uwtable
define linkonce_odr noundef i32 @_ZStanSt12memory_orderSt23__memory_order_modifier(i32 noundef %0, i32 noundef %1) #1 comdat {
  %3 = alloca i32, align 4
  %4 = alloca i32, align 4
  store i32 %0, ptr %3, align 4, !tbaa !54
  store i32 %1, ptr %4, align 4, !tbaa !146
  %5 = load i32, ptr %3, align 4, !tbaa !54
  %6 = load i32, ptr %4, align 4, !tbaa !146
  %7 = and i32 %5, %6
  ret i32 %7
}

; Function Attrs: alwaysinline mustprogress nounwind sspstrong uwtable
define linkonce_odr void @_ZNSt13__atomic_baseIjE5storeEjSt12memory_order(ptr noundef nonnull align 4 dereferenceable(4) %0, i32 noundef %1, i32 noundef %2) #8 comdat align 2 {
  %4 = alloca ptr, align 8
  %5 = alloca i32, align 4
  %6 = alloca i32, align 4
  %7 = alloca i32, align 4
  %8 = alloca i32, align 4
  store ptr %0, ptr %4, align 8, !tbaa !72
  store i32 %1, ptr %5, align 4, !tbaa !74
  store i32 %2, ptr %6, align 4, !tbaa !54
  %9 = load ptr, ptr %4, align 8
  call void @llvm.lifetime.start.p0(i64 4, ptr %7) #12
  %10 = load i32, ptr %6, align 4, !tbaa !54
  %11 = call noundef i32 @_ZStanSt12memory_orderSt23__memory_order_modifier(i32 noundef %10, i32 noundef 65535)
  store i32 %11, ptr %7, align 4, !tbaa !54
  br label %12

12:                                               ; preds = %3
  br label %13

13:                                               ; preds = %12
  br label %14

14:                                               ; preds = %13
  br label %15

15:                                               ; preds = %14
  br label %16

16:                                               ; preds = %15
  br label %17

17:                                               ; preds = %16
  br label %18

18:                                               ; preds = %17
  br label %19

19:                                               ; preds = %18
  br label %20

20:                                               ; preds = %19
  %21 = getelementptr inbounds nuw %"struct.std::__atomic_base.5", ptr %9, i32 0, i32 0
  %22 = load i32, ptr %6, align 4, !tbaa !54
  %23 = load i32, ptr %5, align 4, !tbaa !74
  store i32 %23, ptr %8, align 4, !tbaa !74
  switch i32 %22, label %24 [
    i32 3, label %26
    i32 5, label %28
  ]

24:                                               ; preds = %20
  %25 = load i32, ptr %8, align 4
  store atomic i32 %25, ptr %21 monotonic, align 4
  br label %30

26:                                               ; preds = %20
  %27 = load i32, ptr %8, align 4
  store atomic i32 %27, ptr %21 release, align 4
  br label %30

28:                                               ; preds = %20
  %29 = load i32, ptr %8, align 4
  store atomic i32 %29, ptr %21 seq_cst, align 4
  br label %30

30:                                               ; preds = %28, %26, %24
  call void @llvm.lifetime.end.p0(i64 4, ptr %7) #12
  ret void
}

; Function Attrs: alwaysinline mustprogress nounwind sspstrong uwtable
define linkonce_odr noundef i32 @_ZNKSt13__atomic_baseIjE4loadESt12memory_order(ptr noundef nonnull align 4 dereferenceable(4) %0, i32 noundef %1) #8 comdat align 2 {
  %3 = alloca ptr, align 8
  %4 = alloca i32, align 4
  %5 = alloca i32, align 4
  %6 = alloca i32, align 4
  store ptr %0, ptr %3, align 8, !tbaa !72
  store i32 %1, ptr %4, align 4, !tbaa !54
  %7 = load ptr, ptr %3, align 8
  call void @llvm.lifetime.start.p0(i64 4, ptr %5) #12
  %8 = load i32, ptr %4, align 4, !tbaa !54
  %9 = call noundef i32 @_ZStanSt12memory_orderSt23__memory_order_modifier(i32 noundef %8, i32 noundef 65535)
  store i32 %9, ptr %5, align 4, !tbaa !54
  br label %10

10:                                               ; preds = %2
  br label %11

11:                                               ; preds = %10
  br label %12

12:                                               ; preds = %11
  br label %13

13:                                               ; preds = %12
  br label %14

14:                                               ; preds = %13
  br label %15

15:                                               ; preds = %14
  %16 = getelementptr inbounds nuw %"struct.std::__atomic_base.5", ptr %7, i32 0, i32 0
  %17 = load i32, ptr %4, align 4, !tbaa !54
  switch i32 %17, label %18 [
    i32 1, label %20
    i32 2, label %20
    i32 5, label %22
  ]

18:                                               ; preds = %15
  %19 = load atomic i32, ptr %16 monotonic, align 4
  store i32 %19, ptr %6, align 4
  br label %24

20:                                               ; preds = %15, %15
  %21 = load atomic i32, ptr %16 acquire, align 4
  store i32 %21, ptr %6, align 4
  br label %24

22:                                               ; preds = %15
  %23 = load atomic i32, ptr %16 seq_cst, align 4
  store i32 %23, ptr %6, align 4
  br label %24

24:                                               ; preds = %22, %20, %18
  %25 = load i32, ptr %6, align 4, !tbaa !74
  call void @llvm.lifetime.end.p0(i64 4, ptr %5) #12
  ret i32 %25
}

; Function Attrs: mustprogress nounwind sspstrong uwtable
define void @_ZN3tbb6detail2r123task_group_context_impl26propagate_task_group_stateERNS0_2d118task_group_contextEMS4_St6atomicIjES5_j(ptr noundef nonnull align 8 dereferenceable(128) %0, i64 %1, ptr noundef nonnull align 8 dereferenceable(128) %2, i32 noundef %3) #1 align 2 {
  %5 = alloca ptr, align 8
  %6 = alloca i64, align 8
  %7 = alloca ptr, align 8
  %8 = alloca i32, align 4
  %9 = alloca ptr, align 8
  %10 = alloca i32, align 4
  %11 = alloca ptr, align 8
  store ptr %0, ptr %5, align 8, !tbaa !16
  store i64 %1, ptr %6, align 8, !tbaa !71
  store ptr %2, ptr %7, align 8, !tbaa !16
  store i32 %3, ptr %8, align 4, !tbaa !74
  %12 = load ptr, ptr %5, align 8, !tbaa !16
  %13 = load i64, ptr %6, align 8, !tbaa !71
  %14 = getelementptr inbounds i8, ptr %12, i64 %13
  %15 = call noundef i32 @_ZNKSt13__atomic_baseIjE4loadESt12memory_order(ptr noundef nonnull align 4 dereferenceable(4) %14, i32 noundef 0) #12
  %16 = load i32, ptr %8, align 4, !tbaa !74
  %17 = icmp ne i32 %15, %16
  br i1 %17, label %18, label %58

18:                                               ; preds = %4
  %19 = load ptr, ptr %5, align 8, !tbaa !16
  %20 = load ptr, ptr %7, align 8, !tbaa !16
  %21 = icmp ne ptr %19, %20
  br i1 %21, label %22, label %58

22:                                               ; preds = %18
  call void @llvm.lifetime.start.p0(i64 8, ptr %9) #12
  %23 = load ptr, ptr %5, align 8, !tbaa !16
  %24 = getelementptr inbounds nuw %"class.tbb::detail::d1::task_group_context", ptr %23, i32 0, i32 6
  %25 = load ptr, ptr %24, align 8, !tbaa !71
  store ptr %25, ptr %9, align 8, !tbaa !16
  br label %26

26:                                               ; preds = %52, %22
  %27 = load ptr, ptr %9, align 8, !tbaa !16
  %28 = icmp ne ptr %27, null
  br i1 %28, label %30, label %29

29:                                               ; preds = %26
  store i32 2, ptr %10, align 4
  br label %56

30:                                               ; preds = %26
  %31 = load ptr, ptr %9, align 8, !tbaa !16
  %32 = load ptr, ptr %7, align 8, !tbaa !16
  %33 = icmp eq ptr %31, %32
  br i1 %33, label %34, label %51

34:                                               ; preds = %30
  call void @llvm.lifetime.start.p0(i64 8, ptr %11) #12
  %35 = load ptr, ptr %5, align 8, !tbaa !16
  store ptr %35, ptr %11, align 8, !tbaa !16
  br label %36

36:                                               ; preds = %46, %34
  %37 = load ptr, ptr %11, align 8, !tbaa !16
  %38 = load ptr, ptr %9, align 8, !tbaa !16
  %39 = icmp ne ptr %37, %38
  br i1 %39, label %41, label %40

40:                                               ; preds = %36
  store i32 5, ptr %10, align 4
  call void @llvm.lifetime.end.p0(i64 8, ptr %11) #12
  br label %50

41:                                               ; preds = %36
  %42 = load ptr, ptr %11, align 8, !tbaa !16
  %43 = load i64, ptr %6, align 8, !tbaa !71
  %44 = getelementptr inbounds i8, ptr %42, i64 %43
  %45 = load i32, ptr %8, align 4, !tbaa !74
  call void @_ZNSt13__atomic_baseIjE5storeEjSt12memory_order(ptr noundef nonnull align 4 dereferenceable(4) %44, i32 noundef %45, i32 noundef 0) #12
  br label %46

46:                                               ; preds = %41
  %47 = load ptr, ptr %11, align 8, !tbaa !16
  %48 = getelementptr inbounds nuw %"class.tbb::detail::d1::task_group_context", ptr %47, i32 0, i32 6
  %49 = load ptr, ptr %48, align 8, !tbaa !71
  store ptr %49, ptr %11, align 8, !tbaa !16
  br label %36, !llvm.loop !138

50:                                               ; preds = %40
  store i32 2, ptr %10, align 4
  br label %56

51:                                               ; preds = %30
  br label %52

52:                                               ; preds = %51
  %53 = load ptr, ptr %9, align 8, !tbaa !16
  %54 = getelementptr inbounds nuw %"class.tbb::detail::d1::task_group_context", ptr %53, i32 0, i32 6
  %55 = load ptr, ptr %54, align 8, !tbaa !71
  store ptr %55, ptr %9, align 8, !tbaa !16
  br label %26, !llvm.loop !140

56:                                               ; preds = %50, %29
  call void @llvm.lifetime.end.p0(i64 8, ptr %9) #12
  br label %57

57:                                               ; preds = %56
  br label %58

58:                                               ; preds = %57, %18, %4
  ret void
}