; Function Attrs: mustprogress nofree norecurse nounwind sspstrong memory(readwrite, inaccessiblemem: none) uwtable
define void @_ZN3tbb6detail2r123task_group_context_impl26propagate_task_group_stateERNS0_2d118task_group_contextEMS4_St6atomicIjES5_j(ptr noundef nonnull align 8 dereferenceable(128) %0, i64 %1, ptr noundef nonnull readnone align 8 dereferenceable(128) %2, i32 noundef %3) local_unnamed_addr #10 align 2 {
  %5 = getelementptr inbounds i8, ptr %0, i64 %1
  %6 = load atomic i32, ptr %5 monotonic, align 4
  %.not = icmp eq i32 %6, %3
  %.not20 = icmp eq ptr %0, %2
  %or.cond = or i1 %.not20, %.not
  br i1 %or.cond, label %.loopexit, label %.preheader23

.preheader23:                                     ; preds = %4, %7
  %.pn = phi ptr [ %.016, %7 ], [ %0, %4 ]
  %.016.in = getelementptr inbounds nuw i8, ptr %.pn, i64 16
  %.016 = load ptr, ptr %.016.in, align 8, !tbaa !74
  %.not21 = icmp eq ptr %.016, null
  br i1 %.not21, label %.loopexit, label %7

7:                                                ; preds = %.preheader23
  %8 = icmp eq ptr %.016, %2
  br i1 %8, label %.lr.ph, label %.preheader23, !llvm.loop !109

.lr.ph:                                           ; preds = %7, %.lr.ph
  %.027 = phi ptr [ %11, %.lr.ph ], [ %0, %7 ]
  %9 = getelementptr inbounds i8, ptr %.027, i64 %1
  store atomic i32 %3, ptr %9 monotonic, align 4
  %10 = getelementptr inbounds nuw i8, ptr %.027, i64 16
  %11 = load ptr, ptr %10, align 8, !tbaa !74
  %.not22 = icmp eq ptr %11, %2
  br i1 %.not22, label %.loopexit, label %.lr.ph, !llvm.loop !110

.loopexit:                                        ; preds = %.preheader23, %.lr.ph, %4
  ret void
}